; ModuleID = '37/1535.c'
source_filename = "37/1535.c"
target datalayout = "e-m:e-p270:32:32-p271:32:32-p272:64:64-i64:64-f80:128-n8:16:32:64-S128"
target triple = "x86_64-pc-linux-gnu"

@.str = private unnamed_addr constant [3 x i8] c"%d\00", align 1
@.str.1 = private unnamed_addr constant [4 x i8] c"%c\0A\00", align 1
@.str.2 = private unnamed_addr constant [4 x i8] c"no\0A\00", align 1

; Function Attrs: noinline nounwind uwtable
define dso_local i32 @main() #0 {
  %1 = alloca i32, align 4
  %2 = alloca i32, align 4
  %3 = alloca i32, align 4
  %4 = alloca i32, align 4
  %5 = alloca i32, align 4
  %6 = alloca i32, align 4
  %7 = alloca i32, align 4
  %8 = alloca [100 x [100000 x i8]], align 16
  store i32 0, i32* %1, align 4
  store i32 0, i32* %6, align 4
  store i32 0, i32* %7, align 4
  %9 = call i32 (i8*, ...) @__isoc99_scanf(i8* getelementptr inbounds ([3 x i8], [3 x i8]* @.str, i64 0, i64 0), i32* %2)
  store i32 0, i32* %3, align 4
  br label %10

10:                                               ; preds = %20, %0
  %11 = load i32, i32* %3, align 4
  %12 = load i32, i32* %2, align 4
  %13 = icmp slt i32 %11, %12
  br i1 %13, label %14, label %23

14:                                               ; preds = %10
  %15 = load i32, i32* %3, align 4
  %16 = sext i32 %15 to i64
  %17 = getelementptr inbounds [100 x [100000 x i8]], [100 x [100000 x i8]]* %8, i64 0, i64 %16
  %18 = getelementptr inbounds [100000 x i8], [100000 x i8]* %17, i64 0, i64 0
  %19 = call i32 (i8*, ...) bitcast (i32 (...)* @gets to i32 (i8*, ...)*)(i8* %18)
  br label %20

20:                                               ; preds = %14
  %21 = load i32, i32* %3, align 4
  %22 = add nsw i32 %21, 1
  store i32 %22, i32* %3, align 4
  br label %10

23:                                               ; preds = %10
  store i32 0, i32* %3, align 4
  br label %24

24:                                               ; preds = %113, %23
  %25 = load i32, i32* %3, align 4
  %26 = load i32, i32* %2, align 4
  %27 = add nsw i32 %26, 1
  %28 = icmp slt i32 %25, %27
  br i1 %28, label %29, label %116

29:                                               ; preds = %24
  store i32 0, i32* %4, align 4
  br label %30

30:                                               ; preds = %95, %29
  %31 = load i32, i32* %4, align 4
  %32 = sext i32 %31 to i64
  %33 = load i32, i32* %3, align 4
  %34 = sext i32 %33 to i64
  %35 = getelementptr inbounds [100 x [100000 x i8]], [100 x [100000 x i8]]* %8, i64 0, i64 %34
  %36 = getelementptr inbounds [100000 x i8], [100000 x i8]* %35, i64 0, i64 0
  %37 = call i64 @strlen(i8* %36) #3
  %38 = icmp ult i64 %32, %37
  br i1 %38, label %39, label %98

39:                                               ; preds = %30
  store i32 0, i32* %5, align 4
  br label %40

40:                                               ; preds = %75, %39
  %41 = load i32, i32* %5, align 4
  %42 = sext i32 %41 to i64
  %43 = load i32, i32* %3, align 4
  %44 = sext i32 %43 to i64
  %45 = getelementptr inbounds [100 x [100000 x i8]], [100 x [100000 x i8]]* %8, i64 0, i64 %44
  %46 = getelementptr inbounds [100000 x i8], [100000 x i8]* %45, i64 0, i64 0
  %47 = call i64 @strlen(i8* %46) #3
  %48 = icmp ult i64 %42, %47
  br i1 %48, label %49, label %78

49:                                               ; preds = %40
  %50 = load i32, i32* %3, align 4
  %51 = sext i32 %50 to i64
  %52 = getelementptr inbounds [100 x [100000 x i8]], [100 x [100000 x i8]]* %8, i64 0, i64 %51
  %53 = load i32, i32* %4, align 4
  %54 = sext i32 %53 to i64
  %55 = getelementptr inbounds [100000 x i8], [100000 x i8]* %52, i64 0, i64 %54
  %56 = load i8, i8* %55, align 1
  %57 = sext i8 %56 to i32
  %58 = load i32, i32* %3, align 4
  %59 = sext i32 %58 to i64
  %60 = getelementptr inbounds [100 x [100000 x i8]], [100 x [100000 x i8]]* %8, i64 0, i64 %59
  %61 = load i32, i32* %5, align 4
  %62 = sext i32 %61 to i64
  %63 = getelementptr inbounds [100000 x i8], [100000 x i8]* %60, i64 0, i64 %62
  %64 = load i8, i8* %63, align 1
  %65 = sext i8 %64 to i32
  %66 = icmp eq i32 %57, %65
  br i1 %66, label %67, label %74

67:                                               ; preds = %49
  %68 = load i32, i32* %4, align 4
  %69 = load i32, i32* %5, align 4
  %70 = icmp ne i32 %68, %69
  br i1 %70, label %71, label %74

71:                                               ; preds = %67
  %72 = load i32, i32* %6, align 4
  %73 = add nsw i32 %72, 1
  store i32 %73, i32* %6, align 4
  br label %74

74:                                               ; preds = %71, %67, %49
  br label %75

75:                                               ; preds = %74
  %76 = load i32, i32* %5, align 4
  %77 = add nsw i32 %76, 1
  store i32 %77, i32* %5, align 4
  br label %40

78:                                               ; preds = %40
  %79 = load i32, i32* %6, align 4
  %80 = icmp eq i32 %79, 0
  br i1 %80, label %81, label %91

81:                                               ; preds = %78
  %82 = load i32, i32* %3, align 4
  %83 = sext i32 %82 to i64
  %84 = getelementptr inbounds [100 x [100000 x i8]], [100 x [100000 x i8]]* %8, i64 0, i64 %83
  %85 = load i32, i32* %4, align 4
  %86 = sext i32 %85 to i64
  %87 = getelementptr inbounds [100000 x i8], [100000 x i8]* %84, i64 0, i64 %86
  %88 = load i8, i8* %87, align 1
  %89 = sext i8 %88 to i32
  %90 = call i32 (i8*, ...) @printf(i8* getelementptr inbounds ([4 x i8], [4 x i8]* @.str.1, i64 0, i64 0), i32 %89)
  br label %98

91:                                               ; preds = %78
  %92 = load i32, i32* %7, align 4
  %93 = add nsw i32 %92, 1
  store i32 %93, i32* %7, align 4
  br label %94

94:                                               ; preds = %91
  store i32 0, i32* %6, align 4
  br label %95

95:                                               ; preds = %94
  %96 = load i32, i32* %4, align 4
  %97 = add nsw i32 %96, 1
  store i32 %97, i32* %4, align 4
  br label %30

98:                                               ; preds = %81, %30
  %99 = load i32, i32* %7, align 4
  %100 = sext i32 %99 to i64
  %101 = load i32, i32* %3, align 4
  %102 = sext i32 %101 to i64
  %103 = getelementptr inbounds [100 x [100000 x i8]], [100 x [100000 x i8]]* %8, i64 0, i64 %102
  %104 = getelementptr inbounds [100000 x i8], [100000 x i8]* %103, i64 0, i64 0
  %105 = call i64 @strlen(i8* %104) #3
  %106 = icmp eq i64 %100, %105
  br i1 %106, label %107, label %112

107:                                              ; preds = %98
  %108 = load i32, i32* %3, align 4
  %109 = icmp ne i32 %108, 0
  br i1 %109, label %110, label %112

110:                                              ; preds = %107
  %111 = call i32 (i8*, ...) @printf(i8* getelementptr inbounds ([4 x i8], [4 x i8]* @.str.2, i64 0, i64 0))
  br label %112

112:                                              ; preds = %110, %107, %98
  store i32 0, i32* %7, align 4
  br label %113

113:                                              ; preds = %112
  %114 = load i32, i32* %3, align 4
  %115 = add nsw i32 %114, 1
  store i32 %115, i32* %3, align 4
  br label %24

116:                                              ; preds = %24
  ret i32 0
}

declare dso_local i32 @__isoc99_scanf(i8*, ...) #1

declare dso_local i32 @gets(...) #1

; Function Attrs: nounwind readonly
declare dso_local i64 @strlen(i8*) #2

declare dso_local i32 @printf(i8*, ...) #1


!llvm.module.flags = !{!0}
!llvm.ident = !{!1}

!0 = !{i32 1, !"wchar_size", i32 4}
!1 = !{!"clang version 10.0.0-4ubuntu1 "}
